; Function Attrs: mustprogress nounwind uwtable
define hidden void @_ZN24G1PreConcurrentStartTaskC2EN7GCCause5CauseEP16G1ConcurrentMark(ptr noundef nonnull align 8 dereferenceable(64) %0, i32 %1, ptr noundef %2) unnamed_addr #0 align 2 {
  %4 = load ptr, ptr @_ZN8Universe14_collectedHeapE, align 8
  %5 = getelementptr inbounds i8, ptr %4, i64 1064
  %6 = load ptr, ptr %5, align 8
  %7 = tail call noundef ptr @_ZNK8G1Policy11phase_timesEv(ptr noundef nonnull align 8 dereferenceable(552) %6) #22
  tail call void @_ZN13G1BatchedTaskC2EPKcP14G1GCPhaseTimes(ptr noundef nonnull align 8 dereferenceable(64) %0, ptr noundef nonnull @.str.25, ptr noundef %7) #22
  store ptr getelementptr inbounds inrange(-16, 8) (i8, ptr @_ZTV24G1PreConcurrentStartTask, i64 16), ptr %0, align 8
  %8 = tail call noundef ptr @_Z12AllocateHeapm8MEMFLAGSN17AllocFailStrategy13AllocFailEnumE(i64 noundef 24, i8 noundef zeroext 5, i32 noundef 0) #22
  %9 = getelementptr inbounds i8, ptr %8, i64 8
  store i32 43, ptr %9, align 8
  store ptr getelementptr inbounds inrange(-16, 40) (i8, ptr @_ZTVN24G1PreConcurrentStartTask21ResetMarkingStateTaskE, i64 16), ptr %8, align 8
  %10 = getelementptr inbounds i8, ptr %8, i64 16
  store ptr %2, ptr %10, align 8
  tail call void @_ZN13G1BatchedTask15add_serial_taskEP17G1AbstractSubTask(ptr noundef nonnull align 8 dereferenceable(64) %0, ptr noundef nonnull %8) #22
  %11 = tail call noundef ptr @_Z12AllocateHeapm8MEMFLAGSN17AllocFailStrategy13AllocFailEnumE(i64 noundef 32, i8 noundef zeroext 5, i32 noundef 0) #22
  %12 = getelementptr inbounds i8, ptr %11, i64 8
  store i32 44, ptr %12, align 8
  store ptr getelementptr inbounds inrange(-16, 40) (i8, ptr @_ZTVN24G1PreConcurrentStartTask19NoteStartOfMarkTaskE, i64 16), ptr %11, align 8
  %13 = getelementptr inbounds i8, ptr %11, i64 16
  tail call void @_ZN19G1HeapRegionClaimerC1Ej(ptr noundef nonnull align 8 dereferenceable(16) %13, i32 noundef 0) #22
  tail call void @_ZN13G1BatchedTask17add_parallel_taskEP17G1AbstractSubTask(ptr noundef nonnull align 8 dereferenceable(64) %0, ptr noundef nonnull %11) #22
  ret void
}